; Function Attrs: nounwind uwtable
define void @Gia_ManSupExperimentOne(ptr noundef readonly captures(none) %0, ptr noundef %1, ptr noundef %2) local_unnamed_addr #6 {
  %4 = alloca i32, align 4
  %5 = alloca i32, align 4
  call void @llvm.lifetime.start.p0(i64 4, ptr nonnull %4) #14
  %6 = getelementptr inbounds nuw i8, ptr %0, i64 24
  %7 = load ptr, ptr %6, align 8, !tbaa !37
  %8 = ptrtoint ptr %1 to i64
  %9 = and i64 %8, -2
  %10 = getelementptr i8, ptr %7, i64 32
  %.val = load ptr, ptr %10, align 8, !tbaa !38
  %11 = ptrtoint ptr %.val to i64
  %12 = sub i64 %9, %11
  %13 = sdiv exact i64 %12, 12
  %14 = trunc i64 %13 to i32
  store i32 %14, ptr %4, align 4, !tbaa !21
  call void @llvm.lifetime.start.p0(i64 4, ptr nonnull %5) #14
  %15 = ptrtoint ptr %2 to i64
  %16 = and i64 %15, -2
  %17 = sub i64 %16, %11
  %18 = sdiv exact i64 %17, 12
  %19 = trunc i64 %18 to i32
  store i32 %19, ptr %5, align 4, !tbaa !21
  %20 = inttoptr i64 %16 to ptr
  %.val10 = load i64, ptr %20, align 4
  %21 = and i64 %.val10, 2147483648
  %.not.i = icmp ne i64 %21, 0
  %22 = and i64 %.val10, 536870911
  %23 = icmp eq i64 %22, 536870911
  %narrow.i.not = or i1 %.not.i, %23
  br i1 %narrow.i.not, label %24, label %25

24:                                               ; preds = %3
  tail call void (i32, ptr, ...) @Abc_Print(i32 poison, ptr noundef nonnull @.str)
  br label %33

25:                                               ; preds = %3
  %26 = call i32 @Gia_ManSuppSize(ptr noundef nonnull %7, ptr noundef nonnull %4, i32 noundef 1) #14
  %27 = load ptr, ptr %6, align 8, !tbaa !37
  %28 = call i32 @Gia_ManConeSize(ptr noundef %27, ptr noundef nonnull %4, i32 noundef 1) #14
  %29 = load ptr, ptr %6, align 8, !tbaa !37
  %30 = call i32 @Gia_ManSuppSize(ptr noundef %29, ptr noundef nonnull %5, i32 noundef 1) #14
  %31 = load ptr, ptr %6, align 8, !tbaa !37
  %32 = call i32 @Gia_ManConeSize(ptr noundef %31, ptr noundef nonnull %5, i32 noundef 1) #14
  call void (i32, ptr, ...) @Abc_Print(i32 poison, ptr noundef nonnull @.str.1, i32 noundef %26, i32 noundef %28, i32 noundef %30, i32 noundef %32)
  call void (i32, ptr, ...) @Abc_Print(i32 poison, ptr noundef nonnull @.str.2)
  br label %33

33:                                               ; preds = %25, %24
  call void @llvm.lifetime.end.p0(i64 4, ptr nonnull %5) #14
  call void @llvm.lifetime.end.p0(i64 4, ptr nonnull %4) #14
  ret void
}